target datalayout = "e-m:e-p270:32:32-p271:32:32-p272:64:64-i64:64-i128:128-f80:128-n8:16:32:64-S128"
target triple = "x86_64-pc-linux-gnu"

%"class.zmq::dish_t" = type { %"class.zmq::socket_base_t.base", [7 x i8], %"class.zmq::fq_t", %"class.zmq::dist_t", %"class.std::set.46", i8, %"class.zmq::msg_t" }
%"class.zmq::socket_base_t.base" = type <{ %"class.zmq::own_t.base", [4 x i8], %"class.zmq::array_item_t.base", [4 x i8], %"struct.zmq::i_poll_events", %"struct.zmq::i_pipe_events", %"class.zmq::mutex_t", %"class.std::multimap", %"class.zmq::socket_base_t::inprocs_t", i32, i8, i8, [2 x i8], ptr, %"class.zmq::array_t", ptr, ptr, i64, i32, i8, [3 x i8], %"class.zmq::clock_t", ptr, i64, %"class.std::__cxx11::basic_string", i8, [7 x i8], ptr, %"class.zmq::mutex_t", i8 }>
%"class.zmq::own_t.base" = type <{ %"class.zmq::object_t.base", [4 x i8], %"struct.zmq::options_t", i8, [7 x i8], %"class.zmq::atomic_counter_t", i64, ptr, %"class.std::set.24", i32 }>
%"class.zmq::object_t.base" = type <{ ptr, ptr, i32 }>
%"struct.zmq::options_t" = type { i32, i32, i64, i8, [256 x i8], i32, i32, i32, i32, i32, i32, i32, i32, i8, %"struct.zmq::atomic_value_t", i32, i32, i32, i32, i32, i32, i64, i32, i32, i8, i32, i8, i8, i8, i8, i8, %"class.std::__cxx11::basic_string", %"class.std::__cxx11::basic_string", %"class.std::__cxx11::basic_string", i32, i32, i32, i32, %"class.std::vector", %"class.std::set", %"class.std::set", %"class.std::set.6", i32, i32, %"class.std::__cxx11::basic_string", %"class.std::__cxx11::basic_string", %"class.std::__cxx11::basic_string", [32 x i8], [32 x i8], [32 x i8], %"class.std::__cxx11::basic_string", %"class.std::__cxx11::basic_string", i32, i32, i8, i32, i8, i32, i8, i16, i32, i32, i32, %"class.std::__cxx11::basic_string", i8, i8, i8, i32, i32, i8, i32, %"class.std::map", i32, %"class.std::__cxx11::basic_string", %"class.std::__cxx11::basic_string", %"class.std::__cxx11::basic_string", %"class.std::__cxx11::basic_string", i8, %"class.std::vector.17", i8, %"class.std::vector.17", i8, %"class.std::vector.17", i8, i32, i8, i32, i32, i32, i32, i32, i8, i32 }
%"struct.zmq::atomic_value_t" = type { %"struct.std::atomic" }
%"struct.std::atomic" = type { %"struct.std::__atomic_base" }
%"struct.std::__atomic_base" = type { i32 }
%"class.std::vector" = type { %"struct.std::_Vector_base" }
%"struct.std::_Vector_base" = type { %"struct.std::_Vector_base<zmq::tcp_address_mask_t, std::allocator<zmq::tcp_address_mask_t>>::_Vector_impl" }
%"struct.std::_Vector_base<zmq::tcp_address_mask_t, std::allocator<zmq::tcp_address_mask_t>>::_Vector_impl" = type { %"struct.std::_Vector_base<zmq::tcp_address_mask_t, std::allocator<zmq::tcp_address_mask_t>>::_Vector_impl_data" }
%"struct.std::_Vector_base<zmq::tcp_address_mask_t, std::allocator<zmq::tcp_address_mask_t>>::_Vector_impl_data" = type { ptr, ptr, ptr }
%"class.std::set" = type { %"class.std::_Rb_tree" }
%"class.std::_Rb_tree" = type { %"struct.std::_Rb_tree<unsigned int, unsigned int, std::_Identity<unsigned int>, std::less<unsigned int>>::_Rb_tree_impl" }
%"struct.std::_Rb_tree<unsigned int, unsigned int, std::_Identity<unsigned int>, std::less<unsigned int>>::_Rb_tree_impl" = type { [8 x i8], %"struct.std::_Rb_tree_header" }
%"struct.std::_Rb_tree_header" = type { %"struct.std::_Rb_tree_node_base", i64 }
%"struct.std::_Rb_tree_node_base" = type { i32, ptr, ptr, ptr }
%"class.std::set.6" = type { %"class.std::_Rb_tree.7" }
%"class.std::_Rb_tree.7" = type { %"struct.std::_Rb_tree<int, int, std::_Identity<int>, std::less<int>>::_Rb_tree_impl" }
%"struct.std::_Rb_tree<int, int, std::_Identity<int>, std::less<int>>::_Rb_tree_impl" = type { [8 x i8], %"struct.std::_Rb_tree_header" }
%"class.std::map" = type { %"class.std::_Rb_tree.12" }
%"class.std::_Rb_tree.12" = type { %"struct.std::_Rb_tree<std::__cxx11::basic_string<char>, std::pair<const std::__cxx11::basic_string<char>, std::__cxx11::basic_string<char>>, std::_Select1st<std::pair<const std::__cxx11::basic_string<char>, std::__cxx11::basic_string<char>>>, std::less<std::__cxx11::basic_string<char>>>::_Rb_tree_impl" }
%"struct.std::_Rb_tree<std::__cxx11::basic_string<char>, std::pair<const std::__cxx11::basic_string<char>, std::__cxx11::basic_string<char>>, std::_Select1st<std::pair<const std::__cxx11::basic_string<char>, std::__cxx11::basic_string<char>>>, std::less<std::__cxx11::basic_string<char>>>::_Rb_tree_impl" = type { [8 x i8], %"struct.std::_Rb_tree_header" }
%"class.std::vector.17" = type { %"struct.std::_Vector_base.18" }
%"struct.std::_Vector_base.18" = type { %"struct.std::_Vector_base<unsigned char, std::allocator<unsigned char>>::_Vector_impl" }
%"struct.std::_Vector_base<unsigned char, std::allocator<unsigned char>>::_Vector_impl" = type { %"struct.std::_Vector_base<unsigned char, std::allocator<unsigned char>>::_Vector_impl_data" }
%"struct.std::_Vector_base<unsigned char, std::allocator<unsigned char>>::_Vector_impl_data" = type { ptr, ptr, ptr }
%"class.zmq::atomic_counter_t" = type { %"struct.std::atomic.22", [4 x i8] }
%"struct.std::atomic.22" = type { %"struct.std::__atomic_base.23" }
%"struct.std::__atomic_base.23" = type { i32 }
%"class.std::set.24" = type { %"class.std::_Rb_tree.25" }
%"class.std::_Rb_tree.25" = type { %"struct.std::_Rb_tree<zmq::own_t *, zmq::own_t *, std::_Identity<zmq::own_t *>, std::less<zmq::own_t *>>::_Rb_tree_impl" }
%"struct.std::_Rb_tree<zmq::own_t *, zmq::own_t *, std::_Identity<zmq::own_t *>, std::less<zmq::own_t *>>::_Rb_tree_impl" = type { [8 x i8], %"struct.std::_Rb_tree_header" }
%"class.zmq::array_item_t.base" = type <{ ptr, i32 }>
%"struct.zmq::i_poll_events" = type { ptr }
%"struct.zmq::i_pipe_events" = type { ptr }
%"class.std::multimap" = type { %"class.std::_Rb_tree.30" }
%"class.std::_Rb_tree.30" = type { %"struct.std::_Rb_tree<std::__cxx11::basic_string<char>, std::pair<const std::__cxx11::basic_string<char>, std::pair<zmq::own_t *, zmq::pipe_t *>>, std::_Select1st<std::pair<const std::__cxx11::basic_string<char>, std::pair<zmq::own_t *, zmq::pipe_t *>>>, std::less<std::__cxx11::basic_string<char>>>::_Rb_tree_impl" }
%"struct.std::_Rb_tree<std::__cxx11::basic_string<char>, std::pair<const std::__cxx11::basic_string<char>, std::pair<zmq::own_t *, zmq::pipe_t *>>, std::_Select1st<std::pair<const std::__cxx11::basic_string<char>, std::pair<zmq::own_t *, zmq::pipe_t *>>>, std::less<std::__cxx11::basic_string<char>>>::_Rb_tree_impl" = type { [8 x i8], %"struct.std::_Rb_tree_header" }
%"class.zmq::socket_base_t::inprocs_t" = type { %"class.std::multimap.34" }
%"class.std::multimap.34" = type { %"class.std::_Rb_tree.35" }
%"class.std::_Rb_tree.35" = type { %"struct.std::_Rb_tree<std::__cxx11::basic_string<char>, std::pair<const std::__cxx11::basic_string<char>, zmq::pipe_t *>, std::_Select1st<std::pair<const std::__cxx11::basic_string<char>, zmq::pipe_t *>>, std::less<std::__cxx11::basic_string<char>>>::_Rb_tree_impl" }
%"struct.std::_Rb_tree<std::__cxx11::basic_string<char>, std::pair<const std::__cxx11::basic_string<char>, zmq::pipe_t *>, std::_Select1st<std::pair<const std::__cxx11::basic_string<char>, zmq::pipe_t *>>, std::less<std::__cxx11::basic_string<char>>>::_Rb_tree_impl" = type { [8 x i8], %"struct.std::_Rb_tree_header" }
%"class.zmq::array_t" = type { %"class.std::vector.39" }
%"class.std::vector.39" = type { %"struct.std::_Vector_base.40" }
%"struct.std::_Vector_base.40" = type { %"struct.std::_Vector_base<zmq::pipe_t *, std::allocator<zmq::pipe_t *>>::_Vector_impl" }
%"struct.std::_Vector_base<zmq::pipe_t *, std::allocator<zmq::pipe_t *>>::_Vector_impl" = type { %"struct.std::_Vector_base<zmq::pipe_t *, std::allocator<zmq::pipe_t *>>::_Vector_impl_data" }
%"struct.std::_Vector_base<zmq::pipe_t *, std::allocator<zmq::pipe_t *>>::_Vector_impl_data" = type { ptr, ptr, ptr }
%"class.zmq::clock_t" = type { i64, i64 }
%"class.std::__cxx11::basic_string" = type { %"struct.std::__cxx11::basic_string<char>::_Alloc_hider", i64, %union.anon }
%"struct.std::__cxx11::basic_string<char>::_Alloc_hider" = type { ptr }
%union.anon = type { i64, [8 x i8] }
%"class.zmq::mutex_t" = type <{ %union.pthread_mutex_t, %union.pthread_mutexattr_t, [4 x i8] }>
%union.pthread_mutex_t = type { %struct.__pthread_mutex_s }
%struct.__pthread_mutex_s = type { i32, i32, i32, i32, i32, i16, i16, %struct.__pthread_internal_list }
%struct.__pthread_internal_list = type { ptr, ptr }
%union.pthread_mutexattr_t = type { i32 }
%"class.zmq::fq_t" = type <{ %"class.zmq::array_t.44", i64, i64, i8, [7 x i8] }>
%"class.zmq::array_t.44" = type { %"class.std::vector.39" }
%"class.zmq::dist_t" = type <{ %"class.zmq::array_t.45", i64, i64, i64, i8, [7 x i8] }>
%"class.zmq::array_t.45" = type { %"class.std::vector.39" }
%"class.std::set.46" = type { %"class.std::_Rb_tree.47" }
%"class.std::_Rb_tree.47" = type { %"struct.std::_Rb_tree<std::__cxx11::basic_string<char>, std::__cxx11::basic_string<char>, std::_Identity<std::__cxx11::basic_string<char>>, std::less<std::__cxx11::basic_string<char>>>::_Rb_tree_impl" }
%"struct.std::_Rb_tree<std::__cxx11::basic_string<char>, std::__cxx11::basic_string<char>, std::_Identity<std::__cxx11::basic_string<char>>, std::less<std::__cxx11::basic_string<char>>>::_Rb_tree_impl" = type { [8 x i8], %"struct.std::_Rb_tree_header" }
%"class.zmq::msg_t" = type { %union.anon.51 }
%union.anon.51 = type { %struct.anon }
%struct.anon = type { ptr, [34 x i8], i8, i8, i32, %"union.zmq::msg_t::group_t" }
%"union.zmq::msg_t::group_t" = type { %struct.anon.53 }
%struct.anon.53 = type { i8, ptr }

@stderr = external global ptr, align 8
@.str = private unnamed_addr constant [12 x i8] c"%s (%s:%d)\0A\00", align 1
@.str.1 = private unnamed_addr constant [104 x i8] c"generated/home/dtcxzyw/WorkSpace/Projects/compilers/llvm-opt-benchmark/bench/libzmq/libzmq/src/dish.cpp\00", align 1

; Function Attrs: mustprogress nounwind uwtable
define linkonce_odr noundef ptr @_ZNKSt8_Rb_treeINSt7__cxx1112basic_stringIcSt11char_traitsIcESaIcEEES5_St9_IdentityIS5_ESt4lessIS5_ESaIS5_EE9_M_mbeginEv(ptr noundef nonnull align 8 dereferenceable(48) %0) #2 comdat align 2 {
  %2 = alloca ptr, align 8
  store ptr %0, ptr %2, align 8, !tbaa !150
  %3 = load ptr, ptr %2, align 8
  %4 = getelementptr inbounds nuw %"class.std::_Rb_tree.47", ptr %3, i32 0, i32 0
  %5 = getelementptr inbounds i8, ptr %4, i64 8
  %6 = getelementptr inbounds nuw %"struct.std::_Rb_tree_header", ptr %5, i32 0, i32 0
  %7 = getelementptr inbounds nuw %"struct.std::_Rb_tree_node_base", ptr %6, i32 0, i32 1
  %8 = load ptr, ptr %7, align 8, !tbaa !163
  ret ptr %8
}

; Function Attrs: mustprogress nounwind uwtable
define linkonce_odr void @_ZNSt15__new_allocatorISt13_Rb_tree_nodeINSt7__cxx1112basic_stringIcSt11char_traitsIcESaIcEEEEED2Ev(ptr noundef nonnull align 1 dereferenceable(1) %0) unnamed_addr #2 comdat align 2 {
  %2 = alloca ptr, align 8
  store ptr %0, ptr %2, align 8, !tbaa !161
  ret void
}

; Function Attrs: mustprogress nounwind uwtable
define linkonce_odr noundef ptr @_ZNSt8_Rb_treeINSt7__cxx1112basic_stringIcSt11char_traitsIcESaIcEEES5_St9_IdentityIS5_ESt4lessIS5_ESaIS5_EE8_M_beginEv(ptr noundef nonnull align 8 dereferenceable(48) %0) #2 comdat align 2 {
  %2 = alloca ptr, align 8
  store ptr %0, ptr %2, align 8, !tbaa !150
  %3 = load ptr, ptr %2, align 8
  %4 = call noundef ptr @_ZNKSt8_Rb_treeINSt7__cxx1112basic_stringIcSt11char_traitsIcESaIcEEES5_St9_IdentityIS5_ESt4lessIS5_ESaIS5_EE9_M_mbeginEv(ptr noundef nonnull align 8 dereferenceable(48) %3) #18
  ret ptr %4
}

; Function Attrs: mustprogress nounwind uwtable
define linkonce_odr void @_ZNSt8_Rb_treeINSt7__cxx1112basic_stringIcSt11char_traitsIcESaIcEEES5_St9_IdentityIS5_ESt4lessIS5_ESaIS5_EED2Ev(ptr noundef nonnull align 8 dereferenceable(48) %0) unnamed_addr #2 comdat align 2 personality ptr @__gxx_personality_v0 {
  %2 = alloca ptr, align 8
  store ptr %0, ptr %2, align 8, !tbaa !150
  %3 = load ptr, ptr %2, align 8
  %4 = call noundef ptr @_ZNSt8_Rb_treeINSt7__cxx1112basic_stringIcSt11char_traitsIcESaIcEEES5_St9_IdentityIS5_ESt4lessIS5_ESaIS5_EE8_M_beginEv(ptr noundef nonnull align 8 dereferenceable(48) %3) #18
  invoke void @_ZNSt8_Rb_treeINSt7__cxx1112basic_stringIcSt11char_traitsIcESaIcEEES5_St9_IdentityIS5_ESt4lessIS5_ESaIS5_EE8_M_eraseEPSt13_Rb_tree_nodeIS5_E(ptr noundef nonnull align 8 dereferenceable(48) %3, ptr noundef %4)
          to label %5 unwind label %7

5:                                                ; preds = %1
  %6 = getelementptr inbounds nuw %"class.std::_Rb_tree.47", ptr %3, i32 0, i32 0
  call void @_ZNSt15__new_allocatorISt13_Rb_tree_nodeINSt7__cxx1112basic_stringIcSt11char_traitsIcESaIcEEEEED2Ev(ptr noundef nonnull align 8 dereferenceable(48) %6) #18
  ret void

7:                                                ; preds = %1
  %8 = landingpad { ptr, i32 }
          catch ptr null
  %9 = extractvalue { ptr, i32 } %8, 0
  call void @__clang_call_terminate(ptr %9) #20
  unreachable
}

; Function Attrs: mustprogress nounwind uwtable
define linkonce_odr void @_ZNSt3setINSt7__cxx1112basic_stringIcSt11char_traitsIcESaIcEEESt4lessIS5_ESaIS5_EED2Ev(ptr noundef nonnull align 8 dereferenceable(48) %0) unnamed_addr #2 comdat align 2 {
  %2 = alloca ptr, align 8
  store ptr %0, ptr %2, align 8, !tbaa !100
  %3 = load ptr, ptr %2, align 8
  %4 = getelementptr inbounds nuw %"class.std::set.46", ptr %3, i32 0, i32 0
  call void @_ZNSt8_Rb_treeINSt7__cxx1112basic_stringIcSt11char_traitsIcESaIcEEES5_St9_IdentityIS5_ESt4lessIS5_ESaIS5_EED2Ev(ptr noundef nonnull align 8 dereferenceable(48) %4) #18
  ret void
}

; Function Attrs: mustprogress nounwind uwtable
define void @_ZN3zmq6dish_tD2Ev(ptr noundef nonnull align 8 dereferenceable(2056) %0) unnamed_addr #2 align 2 personality ptr @__gxx_personality_v0 {
  %2 = alloca ptr, align 8
  %3 = alloca i32, align 4
  %4 = alloca ptr, align 8
  store ptr %0, ptr %2, align 8, !tbaa !3
  %5 = load ptr, ptr %2, align 8
  call void @llvm.lifetime.start.p0(i64 4, ptr %3) #18
  %6 = getelementptr inbounds nuw %"class.zmq::dish_t", ptr %5, i32 0, i32 6
  %7 = invoke noundef i32 @_ZN3zmq5msg_t5closeEv(ptr noundef nonnull align 8 dereferenceable(64) %6)
          to label %8 unwind label %34

8:                                                ; preds = %1
  store i32 %7, ptr %3, align 4, !tbaa !10
  br label %9

9:                                                ; preds = %8
  %10 = load i32, ptr %3, align 4, !tbaa !10
  %11 = icmp eq i32 %10, 0
  %12 = xor i1 %11, true
  %13 = zext i1 %12 to i64
  %14 = call i64 @llvm.expect.i64(i64 %13, i64 0)
  %15 = icmp ne i64 %14, 0
  br i1 %15, label %16, label %28

16:                                               ; preds = %9
  call void @llvm.lifetime.start.p0(i64 8, ptr %4) #18
  %17 = call ptr @__errno_location() #19
  %18 = load i32, ptr %17, align 4, !tbaa !10
  %19 = call ptr @strerror(i32 noundef %18) #18
  store ptr %19, ptr %4, align 8, !tbaa !97
  %20 = load ptr, ptr @stderr, align 8, !tbaa !98
  %21 = load ptr, ptr %4, align 8, !tbaa !97
  %22 = call i32 (ptr, ptr, ...) @fprintf(ptr noundef %20, ptr noundef @.str, ptr noundef %21, ptr noundef @.str.1, i32 noundef 26) #18
  %23 = load ptr, ptr @stderr, align 8, !tbaa !98
  %24 = invoke i32 @fflush(ptr noundef %23)
          to label %25 unwind label %34

25:                                               ; preds = %16
  %26 = load ptr, ptr %4, align 8, !tbaa !97
  invoke void @_ZN3zmq9zmq_abortEPKc(ptr noundef %26)
          to label %27 unwind label %34

27:                                               ; preds = %25
  call void @llvm.lifetime.end.p0(i64 8, ptr %4) #18
  br label %28

28:                                               ; preds = %27, %9
  br label %29

29:                                               ; preds = %28
  br label %30

30:                                               ; preds = %29
  call void @llvm.lifetime.end.p0(i64 4, ptr %3) #18
  %31 = getelementptr inbounds nuw %"class.zmq::dish_t", ptr %5, i32 0, i32 4
  call void @_ZNSt3setINSt7__cxx1112basic_stringIcSt11char_traitsIcESaIcEEESt4lessIS5_ESaIS5_EED2Ev(ptr noundef nonnull align 8 dereferenceable(48) %31) #18
  %32 = getelementptr inbounds nuw %"class.zmq::dish_t", ptr %5, i32 0, i32 3
  call void @_ZN3zmq6dist_tD1Ev(ptr noundef nonnull align 8 dereferenceable(49) %32) #18
  %33 = getelementptr inbounds nuw %"class.zmq::dish_t", ptr %5, i32 0, i32 2
  call void @_ZN3zmq4fq_tD1Ev(ptr noundef nonnull align 8 dereferenceable(41) %33) #18
  call void @_ZN3zmq13socket_base_tD2Ev(ptr noundef nonnull align 8 dereferenceable(1825) %5) #18
  ret void

34:                                               ; preds = %25, %16, %1
  %35 = landingpad { ptr, i32 }
          catch ptr null
  %36 = extractvalue { ptr, i32 } %35, 0
  call void @__clang_call_terminate(ptr %36) #20
  unreachable
}