; Function Attrs: mustprogress nounwind uwtable
define void @_ZN3zmq6dish_tD2Ev(ptr noundef nonnull align 8 dereferenceable(2056) %0) unnamed_addr #6 align 2 personality ptr @__gxx_personality_v0 {
  %2 = getelementptr inbounds nuw i8, ptr %0, i64 1992
  %3 = invoke noundef i32 @_ZN3zmq5msg_t5closeEv(ptr noundef nonnull align 8 dereferenceable(64) %2)
          to label %4 unwind label %22

4:                                                ; preds = %1
  %.not = icmp eq i32 %3, 0
  br i1 %.not, label %13, label %5, !prof !98

5:                                                ; preds = %4
  %6 = tail call ptr @__errno_location() #21
  %7 = load i32, ptr %6, align 4, !tbaa !99
  %8 = tail call ptr @strerror(i32 noundef %7) #22
  %9 = load ptr, ptr @stderr, align 8, !tbaa !100
  %10 = tail call i32 (ptr, ptr, ...) @fprintf(ptr noundef %9, ptr noundef nonnull @.str, ptr noundef %8, ptr noundef nonnull @.str.1, i32 noundef 26) #23
  %11 = load ptr, ptr @stderr, align 8, !tbaa !100
  %12 = tail call i32 @fflush(ptr noundef %11)
  invoke void @_ZN3zmq9zmq_abortEPKc(ptr noundef %8)
          to label %13 unwind label %22

13:                                               ; preds = %5, %4
  %14 = getelementptr inbounds nuw i8, ptr %0, i64 1936
  %15 = getelementptr inbounds nuw i8, ptr %0, i64 1952
  %16 = load ptr, ptr %15, align 8, !tbaa !14
  invoke void @_ZNSt8_Rb_treeINSt7__cxx1112basic_stringIcSt11char_traitsIcESaIcEEES5_St9_IdentityIS5_ESt4lessIS5_ESaIS5_EE8_M_eraseEPSt13_Rb_tree_nodeIS5_E(ptr noundef nonnull align 8 dereferenceable(48) %14, ptr noundef %16)
          to label %_ZNSt3setINSt7__cxx1112basic_stringIcSt11char_traitsIcESaIcEEESt4lessIS5_ESaIS5_EED2Ev.exit unwind label %17

17:                                               ; preds = %13
  %18 = landingpad { ptr, i32 }
          catch ptr null
  %19 = extractvalue { ptr, i32 } %18, 0
  tail call void @__clang_call_terminate(ptr %19) #24
  unreachable

_ZNSt3setINSt7__cxx1112basic_stringIcSt11char_traitsIcESaIcEEESt4lessIS5_ESaIS5_EED2Ev.exit: ; preds = %13
  %20 = getelementptr inbounds nuw i8, ptr %0, i64 1880
  tail call void @_ZN3zmq6dist_tD1Ev(ptr noundef nonnull align 8 dereferenceable(49) %20) #22
  %21 = getelementptr inbounds nuw i8, ptr %0, i64 1832
  tail call void @_ZN3zmq4fq_tD1Ev(ptr noundef nonnull align 8 dereferenceable(41) %21) #22
  tail call void @_ZN3zmq13socket_base_tD2Ev(ptr noundef nonnull align 8 dereferenceable(1825) %0) #22
  ret void

22:                                               ; preds = %5, %1
  %23 = landingpad { ptr, i32 }
          catch ptr null
  %24 = extractvalue { ptr, i32 } %23, 0
  tail call void @__clang_call_terminate(ptr %24) #24
  unreachable
}